target datalayout = "e-m:e-p270:32:32-p271:32:32-p272:64:64-i64:64-i128:128-f80:128-n8:16:32:64-S128"
target triple = "x86_64-pc-linux-gnu"

%struct.AVFilterContext = type { ptr, ptr, ptr, ptr, ptr, i32, ptr, ptr, i32, ptr, ptr, i32, i32, ptr, ptr, ptr, ptr, i32, ptr, i32, i32 }
%struct.SignalstatsContext = type { ptr, i32, i32, i32, i32, i32, i32, i32, i32, i32, ptr, [4 x i8], [3 x i32], i32, ptr, i32, ptr, ptr, ptr, ptr, ptr, ptr }

; Function Attrs: cold nounwind optsize uwtable
define internal i32 @init(ptr noundef %0) #0 {
  %2 = alloca ptr, align 8
  %3 = alloca i8, align 1
  %4 = alloca i8, align 1
  %5 = alloca i8, align 1
  %6 = alloca ptr, align 8
  store ptr %0, ptr %2, align 8, !tbaa !4
  call void @llvm.lifetime.start.p0(i64 1, ptr %3) #11
  call void @llvm.lifetime.start.p0(i64 1, ptr %4) #11
  call void @llvm.lifetime.start.p0(i64 1, ptr %5) #11
  call void @llvm.lifetime.start.p0(i64 8, ptr %6) #11
  %7 = load ptr, ptr %2, align 8, !tbaa !4
  %8 = getelementptr inbounds nuw %struct.AVFilterContext, ptr %7, i32 0, i32 9
  %9 = load ptr, ptr %8, align 8, !tbaa !9
  store ptr %9, ptr %6, align 8, !tbaa !22
  %10 = load ptr, ptr %6, align 8, !tbaa !22
  %11 = getelementptr inbounds nuw %struct.SignalstatsContext, ptr %10, i32 0, i32 8
  %12 = load i32, ptr %11, align 4, !tbaa !24
  %13 = icmp ne i32 %12, -1
  br i1 %13, label %14, label %23

14:                                               ; preds = %1
  %15 = load ptr, ptr %6, align 8, !tbaa !22
  %16 = getelementptr inbounds nuw %struct.SignalstatsContext, ptr %15, i32 0, i32 8
  %17 = load i32, ptr %16, align 4, !tbaa !24
  %18 = shl i32 1, %17
  %19 = load ptr, ptr %6, align 8, !tbaa !22
  %20 = getelementptr inbounds nuw %struct.SignalstatsContext, ptr %19, i32 0, i32 9
  %21 = load i32, ptr %20, align 8, !tbaa !28
  %22 = or i32 %21, %18
  store i32 %22, ptr %20, align 8, !tbaa !28
  br label %23

23:                                               ; preds = %14, %1
  %24 = load ptr, ptr %6, align 8, !tbaa !22
  %25 = getelementptr inbounds nuw %struct.SignalstatsContext, ptr %24, i32 0, i32 11
  %26 = getelementptr inbounds [4 x i8], ptr %25, i64 0, i64 0
  %27 = load i8, ptr %26, align 8, !tbaa !29
  store i8 %27, ptr %3, align 1, !tbaa !29
  %28 = load ptr, ptr %6, align 8, !tbaa !22
  %29 = getelementptr inbounds nuw %struct.SignalstatsContext, ptr %28, i32 0, i32 11
  %30 = getelementptr inbounds [4 x i8], ptr %29, i64 0, i64 1
  %31 = load i8, ptr %30, align 1, !tbaa !29
  store i8 %31, ptr %4, align 1, !tbaa !29
  %32 = load ptr, ptr %6, align 8, !tbaa !22
  %33 = getelementptr inbounds nuw %struct.SignalstatsContext, ptr %32, i32 0, i32 11
  %34 = getelementptr inbounds [4 x i8], ptr %33, i64 0, i64 2
  %35 = load i8, ptr %34, align 2, !tbaa !29
  store i8 %35, ptr %5, align 1, !tbaa !29
  %36 = load i8, ptr %3, align 1, !tbaa !29
  %37 = zext i8 %36 to i32
  %38 = mul nsw i32 66, %37
  %39 = load i8, ptr %4, align 1, !tbaa !29
  %40 = zext i8 %39 to i32
  %41 = mul nsw i32 129, %40
  %42 = add nsw i32 %38, %41
  %43 = load i8, ptr %5, align 1, !tbaa !29
  %44 = zext i8 %43 to i32
  %45 = mul nsw i32 25, %44
  %46 = add nsw i32 %42, %45
  %47 = add nsw i32 %46, 128
  %48 = ashr i32 %47, 8
  %49 = add nsw i32 %48, 16
  %50 = load ptr, ptr %6, align 8, !tbaa !22
  %51 = getelementptr inbounds nuw %struct.SignalstatsContext, ptr %50, i32 0, i32 12
  %52 = getelementptr inbounds [3 x i32], ptr %51, i64 0, i64 0
  store i32 %49, ptr %52, align 4, !tbaa !30
  %53 = load i8, ptr %3, align 1, !tbaa !29
  %54 = zext i8 %53 to i32
  %55 = mul nsw i32 -38, %54
  %56 = load i8, ptr %4, align 1, !tbaa !29
  %57 = zext i8 %56 to i32
  %58 = mul nsw i32 -74, %57
  %59 = add nsw i32 %55, %58
  %60 = load i8, ptr %5, align 1, !tbaa !29
  %61 = zext i8 %60 to i32
  %62 = mul nsw i32 112, %61
  %63 = add nsw i32 %59, %62
  %64 = add nsw i32 %63, 128
  %65 = ashr i32 %64, 8
  %66 = add nsw i32 %65, 128
  %67 = load ptr, ptr %6, align 8, !tbaa !22
  %68 = getelementptr inbounds nuw %struct.SignalstatsContext, ptr %67, i32 0, i32 12
  %69 = getelementptr inbounds [3 x i32], ptr %68, i64 0, i64 1
  store i32 %66, ptr %69, align 4, !tbaa !30
  %70 = load i8, ptr %3, align 1, !tbaa !29
  %71 = zext i8 %70 to i32
  %72 = mul nsw i32 112, %71
  %73 = load i8, ptr %4, align 1, !tbaa !29
  %74 = zext i8 %73 to i32
  %75 = mul nsw i32 -94, %74
  %76 = add nsw i32 %72, %75
  %77 = load i8, ptr %5, align 1, !tbaa !29
  %78 = zext i8 %77 to i32
  %79 = mul nsw i32 -18, %78
  %80 = add nsw i32 %76, %79
  %81 = add nsw i32 %80, 128
  %82 = ashr i32 %81, 8
  %83 = add nsw i32 %82, 128
  %84 = load ptr, ptr %6, align 8, !tbaa !22
  %85 = getelementptr inbounds nuw %struct.SignalstatsContext, ptr %84, i32 0, i32 12
  %86 = getelementptr inbounds [3 x i32], ptr %85, i64 0, i64 2
  store i32 %83, ptr %86, align 4, !tbaa !30
  call void @llvm.lifetime.end.p0(i64 8, ptr %6) #11
  call void @llvm.lifetime.end.p0(i64 1, ptr %5) #11
  call void @llvm.lifetime.end.p0(i64 1, ptr %4) #11
  call void @llvm.lifetime.end.p0(i64 1, ptr %3) #11
  ret i32 0
}