; Function Attrs: cold mustprogress nofree norecurse nosync nounwind optsize willreturn memory(readwrite, inaccessiblemem: none) uwtable
define internal noundef i32 @init(ptr noundef readonly captures(none) %0) #0 {
  %2 = getelementptr inbounds nuw i8, ptr %0, i64 72
  %3 = load ptr, ptr %2, align 8, !tbaa !4
  %4 = getelementptr inbounds nuw i8, ptr %3, i64 36
  %5 = load i32, ptr %4, align 4, !tbaa !20
  %.not = icmp eq i32 %5, -1
  br i1 %.not, label %11, label %6

6:                                                ; preds = %1
  %7 = shl nuw i32 1, %5
  %8 = getelementptr inbounds nuw i8, ptr %3, i64 40
  %9 = load i32, ptr %8, align 8, !tbaa !24
  %10 = or i32 %9, %7
  store i32 %10, ptr %8, align 8, !tbaa !24
  br label %11

11:                                               ; preds = %6, %1
  %12 = getelementptr inbounds nuw i8, ptr %3, i64 56
  %13 = load i8, ptr %12, align 8, !tbaa !25
  %14 = getelementptr inbounds nuw i8, ptr %3, i64 57
  %15 = load i8, ptr %14, align 1, !tbaa !25
  %16 = getelementptr inbounds nuw i8, ptr %3, i64 58
  %17 = load i8, ptr %16, align 2, !tbaa !25
  %18 = zext i8 %13 to i32
  %19 = mul nuw nsw i32 %18, 66
  %20 = zext i8 %15 to i32
  %21 = mul nuw nsw i32 %20, 129
  %22 = zext i8 %17 to i32
  %23 = mul nuw nsw i32 %22, 25
  %24 = add nuw nsw i32 %19, 128
  %25 = add nuw nsw i32 %24, %21
  %26 = add nuw nsw i32 %25, %23
  %27 = lshr i32 %26, 8
  %28 = add nuw nsw i32 %27, 16
  %29 = getelementptr inbounds nuw i8, ptr %3, i64 60
  store i32 %28, ptr %29, align 4, !tbaa !26
  %30 = mul nsw i32 %18, -38
  %31 = mul nsw i32 %20, -74
  %32 = mul nuw nsw i32 %22, 112
  %33 = add nsw i32 %30, 128
  %34 = add nsw i32 %33, %31
  %35 = add nsw i32 %34, %32
  %36 = ashr i32 %35, 8
  %37 = add nsw i32 %36, 128
  %38 = getelementptr inbounds nuw i8, ptr %3, i64 64
  store i32 %37, ptr %38, align 4, !tbaa !26
  %39 = mul nuw nsw i32 %18, 112
  %40 = mul nsw i32 %20, -94
  %41 = mul nsw i32 %22, -18
  %42 = add nuw nsw i32 %39, 128
  %43 = add nsw i32 %42, %40
  %44 = add nsw i32 %43, %41
  %45 = ashr i32 %44, 8
  %46 = add nsw i32 %45, 128
  %47 = getelementptr inbounds nuw i8, ptr %3, i64 68
  store i32 %46, ptr %47, align 4, !tbaa !26
  ret i32 0
}